target datalayout = "e-m:e-p270:32:32-p271:32:32-p272:64:64-i64:64-i128:128-f80:128-n8:16:32:64-S128"
target triple = "x86_64-pc-linux-gnu"

%struct._zend_accel_globals = type { i8, i8, i8, i8, i8, %struct._zend_accel_directives, ptr, ptr, [32 x i8], [32 x i8], i32, i8, i32, i8, i32, i64, i64, %struct._zend_array, i64, ptr, ptr, ptr, ptr, ptr }
%struct._zend_accel_directives = type { i64, i64, double, ptr, i64, i8, i8, i8, i8, i8, i8, i8, i8, i8, i8, i8, i64, i64, ptr, ptr, i64, i64, i64, i64, i64, ptr, ptr, ptr, i8, i8, i8, i8, ptr, ptr }
%struct._zend_array = type { %struct._zend_refcounted_h, %union.anon.0, i32, %union.anon.1, i32, i32, i32, i32, i64, ptr }
%struct._zend_refcounted_h = type { i32, %union.anon }
%union.anon = type { i32 }
%union.anon.0 = type { i32 }
%union.anon.1 = type { ptr }
%struct._zend_accel_shared_globals = type { i64, i64, i64, i64, i64, i64, %struct._zend_accel_hash, i64, i64, i64, i64, i8, i8, i32, i8, i8, i8, ptr, ptr, [2 x i32], ptr, ptr, %struct._zend_string_table }
%struct._zend_accel_hash = type { ptr, ptr, i32, i32, i32 }
%struct._zend_string_table = type { i32, i32, ptr, ptr, ptr, ptr }
%struct._zend_string = type { %struct._zend_refcounted_h, i64, i64, [1 x i8] }
%struct.flock = type { i16, i16, i64, i64, i32 }

@accel_shared_globals = hidden global ptr null, align 8
@accel_globals = hidden global %struct._zend_accel_globals zeroinitializer, align 8
@lock_file = external global i32, align 4
@.str.25 = private unnamed_addr constant [22 x i8] c"UpdateC(+1):  %s (%d)\00", align 1

; Function Attrs: alwaysinline nounwind uwtable
define internal i32 @zend_gc_delref(ptr noundef %0) #3 {
  %2 = alloca ptr, align 8
  store ptr %0, ptr %2, align 8, !tbaa !66
  %3 = load ptr, ptr %2, align 8, !tbaa !66
  %4 = getelementptr inbounds nuw %struct._zend_refcounted_h, ptr %3, i32 0, i32 0
  %5 = load i32, ptr %4, align 4, !tbaa !68
  %6 = icmp ugt i32 %5, 0
  call void @llvm.assume(i1 %6)
  br label %7

7:                                                ; preds = %1
  br label %8

8:                                                ; preds = %7
  %9 = load ptr, ptr %2, align 8, !tbaa !66
  %10 = getelementptr inbounds nuw %struct._zend_refcounted_h, ptr %9, i32 0, i32 0
  %11 = load i32, ptr %10, align 4, !tbaa !68
  %12 = add i32 %11, -1
  store i32 %12, ptr %10, align 4, !tbaa !68
  ret i32 %12
}

; Function Attrs: alwaysinline nounwind uwtable
define internal i32 @zval_gc_flags(i32 noundef %0) #3 {
  %2 = alloca i32, align 4
  store i32 %0, ptr %2, align 4, !tbaa !4
  %3 = load i32, ptr %2, align 4, !tbaa !4
  %4 = lshr i32 %3, 0
  %5 = and i32 %4, 1008
  ret i32 %5
}

; Function Attrs: alwaysinline nounwind uwtable
define internal zeroext i1 @zend_string_equal_content(ptr noundef %0, ptr noundef %1) #3 {
  %3 = alloca ptr, align 8
  %4 = alloca ptr, align 8
  store ptr %0, ptr %3, align 8, !tbaa !52
  store ptr %1, ptr %4, align 8, !tbaa !52
  %5 = load ptr, ptr %3, align 8, !tbaa !52
  %6 = getelementptr inbounds nuw %struct._zend_string, ptr %5, i32 0, i32 2
  %7 = load i64, ptr %6, align 8, !tbaa !63
  %8 = load ptr, ptr %4, align 8, !tbaa !52
  %9 = getelementptr inbounds nuw %struct._zend_string, ptr %8, i32 0, i32 2
  %10 = load i64, ptr %9, align 8, !tbaa !63
  %11 = icmp eq i64 %7, %10
  br i1 %11, label %12, label %16

12:                                               ; preds = %2
  %13 = load ptr, ptr %3, align 8, !tbaa !52
  %14 = load ptr, ptr %4, align 8, !tbaa !52
  %15 = call zeroext i1 @zend_string_equal_val(ptr noundef %13, ptr noundef %14)
  br label %16

16:                                               ; preds = %12, %2
  %17 = phi i1 [ false, %2 ], [ %15, %12 ]
  ret i1 %17
}

; Function Attrs: alwaysinline nounwind uwtable
define internal i64 @zend_string_hash_val(ptr noundef %0) #3 {
  %2 = alloca ptr, align 8
  store ptr %0, ptr %2, align 8, !tbaa !52
  %3 = load ptr, ptr %2, align 8, !tbaa !52
  %4 = getelementptr inbounds nuw %struct._zend_string, ptr %3, i32 0, i32 1
  %5 = load i64, ptr %4, align 8, !tbaa !60
  %6 = icmp ne i64 %5, 0
  br i1 %6, label %7, label %11

7:                                                ; preds = %1
  %8 = load ptr, ptr %2, align 8, !tbaa !52
  %9 = getelementptr inbounds nuw %struct._zend_string, ptr %8, i32 0, i32 1
  %10 = load i64, ptr %9, align 8, !tbaa !60
  br label %14

11:                                               ; preds = %1
  %12 = load ptr, ptr %2, align 8, !tbaa !52
  %13 = call i64 @zend_string_hash_func(ptr noundef %12)
  br label %14

14:                                               ; preds = %11, %7
  %15 = phi i64 [ %10, %7 ], [ %13, %11 ]
  ret i64 %15
}

; Function Attrs: inlinehint nounwind uwtable
define internal i32 @accel_activate_add() #8 {
  %1 = alloca i32, align 4
  %2 = alloca %struct.flock, align 8
  %3 = alloca i32, align 4
  call void @llvm.lifetime.start.p0(i64 32, ptr %2) #19
  %4 = getelementptr inbounds nuw %struct.flock, ptr %2, i32 0, i32 0
  store i16 0, ptr %4, align 8, !tbaa !195
  %5 = getelementptr inbounds nuw %struct.flock, ptr %2, i32 0, i32 1
  store i16 0, ptr %5, align 2, !tbaa !197
  %6 = getelementptr inbounds nuw %struct.flock, ptr %2, i32 0, i32 2
  store i64 1, ptr %6, align 8, !tbaa !198
  %7 = getelementptr inbounds nuw %struct.flock, ptr %2, i32 0, i32 3
  store i64 1, ptr %7, align 8, !tbaa !199
  %8 = load i32, ptr @lock_file, align 4, !tbaa !4
  %9 = call i32 (i32, i32, ...) @fcntl(i32 noundef %8, i32 noundef 6, ptr noundef %2)
  %10 = icmp eq i32 %9, -1
  br i1 %10, label %11, label %17

11:                                               ; preds = %0
  %12 = call ptr @__errno_location() #21
  %13 = load i32, ptr %12, align 4, !tbaa !4
  %14 = call ptr @strerror(i32 noundef %13) #19
  %15 = call ptr @__errno_location() #21
  %16 = load i32, ptr %15, align 4, !tbaa !4
  call void (i32, ptr, ...) @zend_accel_error(i32 noundef 4, ptr noundef @.str.25, ptr noundef %14, i32 noundef %16)
  store i32 -1, ptr %1, align 4
  store i32 1, ptr %3, align 4
  br label %18

17:                                               ; preds = %0
  store i32 0, ptr %1, align 4
  store i32 1, ptr %3, align 4
  br label %18

18:                                               ; preds = %17, %11
  call void @llvm.lifetime.end.p0(i64 32, ptr %2) #19
  %19 = load i32, ptr %1, align 4
  ret i32 %19
}

; Function Attrs: alwaysinline nounwind uwtable
define internal void @zend_string_release(ptr noundef %0) #3 {
  %2 = alloca ptr, align 8
  store ptr %0, ptr %2, align 8, !tbaa !52
  %3 = load ptr, ptr %2, align 8, !tbaa !52
  %4 = getelementptr inbounds nuw %struct._zend_string, ptr %3, i32 0, i32 0
  %5 = getelementptr inbounds nuw %struct._zend_refcounted_h, ptr %4, i32 0, i32 1
  %6 = load i32, ptr %5, align 4, !tbaa !65
  %7 = call i32 @zval_gc_flags(i32 noundef %6)
  %8 = and i32 %7, 64
  %9 = icmp ne i32 %8, 0
  br i1 %9, label %29, label %10

10:                                               ; preds = %1
  %11 = load ptr, ptr %2, align 8, !tbaa !52
  %12 = getelementptr inbounds nuw %struct._zend_string, ptr %11, i32 0, i32 0
  %13 = call i32 @zend_gc_delref(ptr noundef %12)
  %14 = icmp eq i32 %13, 0
  br i1 %14, label %15, label %28

15:                                               ; preds = %10
  %16 = load ptr, ptr %2, align 8, !tbaa !52
  %17 = getelementptr inbounds nuw %struct._zend_string, ptr %16, i32 0, i32 0
  %18 = getelementptr inbounds nuw %struct._zend_refcounted_h, ptr %17, i32 0, i32 1
  %19 = load i32, ptr %18, align 4, !tbaa !65
  %20 = call i32 @zval_gc_flags(i32 noundef %19)
  %21 = and i32 %20, 128
  %22 = icmp ne i32 %21, 0
  br i1 %22, label %23, label %25

23:                                               ; preds = %15
  %24 = load ptr, ptr %2, align 8, !tbaa !52
  call void @free(ptr noundef %24) #19
  br label %27

25:                                               ; preds = %15
  %26 = load ptr, ptr %2, align 8, !tbaa !52
  call void @_efree(ptr noundef %26)
  br label %27

27:                                               ; preds = %25, %23
  br label %28

28:                                               ; preds = %27, %10
  br label %29

29:                                               ; preds = %28, %1
  ret void
}

; Function Attrs: alwaysinline nounwind uwtable
define internal ptr @accel_find_interned_string(ptr noundef %0) #3 {
  %2 = alloca ptr, align 8
  %3 = alloca ptr, align 8
  %4 = alloca i64, align 8
  %5 = alloca i32, align 4
  %6 = alloca ptr, align 8
  %7 = alloca i32, align 4
  store ptr %0, ptr %3, align 8, !tbaa !52
  call void @llvm.lifetime.start.p0(i64 8, ptr %4) #19
  call void @llvm.lifetime.start.p0(i64 4, ptr %5) #19
  call void @llvm.lifetime.start.p0(i64 8, ptr %6) #19
  %8 = load ptr, ptr %3, align 8, !tbaa !52
  %9 = load ptr, ptr @accel_shared_globals, align 8, !tbaa !29
  %10 = getelementptr inbounds nuw %struct._zend_accel_shared_globals, ptr %9, i32 0, i32 22
  %11 = getelementptr inbounds nuw %struct._zend_string_table, ptr %10, i32 0, i32 2
  %12 = load ptr, ptr %11, align 8, !tbaa !54
  %13 = icmp uge ptr %8, %12
  br i1 %13, label %14, label %23

14:                                               ; preds = %1
  %15 = load ptr, ptr %3, align 8, !tbaa !52
  %16 = load ptr, ptr @accel_shared_globals, align 8, !tbaa !29
  %17 = getelementptr inbounds nuw %struct._zend_accel_shared_globals, ptr %16, i32 0, i32 22
  %18 = getelementptr inbounds nuw %struct._zend_string_table, ptr %17, i32 0, i32 3
  %19 = load ptr, ptr %18, align 8, !tbaa !55
  %20 = icmp ult ptr %15, %19
  br i1 %20, label %21, label %23

21:                                               ; preds = %14
  %22 = load ptr, ptr %3, align 8, !tbaa !52
  store ptr %22, ptr %2, align 8
  store i32 1, ptr %7, align 4
  br label %91

23:                                               ; preds = %14, %1
  %24 = load i8, ptr @accel_globals, align 8, !tbaa !163, !range !38, !noundef !39
  %25 = trunc i8 %24 to i1
  br i1 %25, label %34, label %26

26:                                               ; preds = %23
  %27 = load i8, ptr getelementptr inbounds nuw (%struct._zend_accel_globals, ptr @accel_globals, i32 0, i32 3), align 1, !tbaa !158, !range !38, !noundef !39
  %28 = trunc i8 %27 to i1
  br i1 %28, label %29, label %32

29:                                               ; preds = %26
  %30 = call i32 @accel_activate_add()
  %31 = icmp eq i32 %30, -1
  br i1 %31, label %32, label %33

32:                                               ; preds = %29, %26
  store ptr null, ptr %2, align 8
  store i32 1, ptr %7, align 4
  br label %91

33:                                               ; preds = %29
  store i8 1, ptr @accel_globals, align 8, !tbaa !163
  br label %34

34:                                               ; preds = %33, %23
  %35 = load ptr, ptr %3, align 8, !tbaa !52
  %36 = call i64 @zend_string_hash_val(ptr noundef %35)
  store i64 %36, ptr %4, align 8, !tbaa !56
  %37 = load ptr, ptr @accel_shared_globals, align 8, !tbaa !29
  %38 = getelementptr inbounds nuw %struct._zend_accel_shared_globals, ptr %37, i32 0, i32 22
  %39 = getelementptr inbounds nuw i8, ptr %38, i64 40
  %40 = load i64, ptr %4, align 8, !tbaa !56
  %41 = load ptr, ptr @accel_shared_globals, align 8, !tbaa !29
  %42 = getelementptr inbounds nuw %struct._zend_accel_shared_globals, ptr %41, i32 0, i32 22
  %43 = getelementptr inbounds nuw %struct._zend_string_table, ptr %42, i32 0, i32 0
  %44 = load i32, ptr %43, align 8, !tbaa !57
  %45 = zext i32 %44 to i64
  %46 = and i64 %40, %45
  %47 = getelementptr inbounds nuw i8, ptr %39, i64 %46
  %48 = load i32, ptr %47, align 4, !tbaa !4
  store i32 %48, ptr %5, align 4, !tbaa !4
  %49 = load i32, ptr %5, align 4, !tbaa !4
  %50 = icmp ne i32 %49, 0
  %51 = xor i1 %50, true
  %52 = xor i1 %51, true
  %53 = zext i1 %52 to i32
  %54 = sext i32 %53 to i64
  %55 = call i64 @llvm.expect.i64(i64 %54, i64 1)
  %56 = icmp ne i64 %55, 0
  br i1 %56, label %57, label %90

57:                                               ; preds = %34
  br label %58

58:                                               ; preds = %86, %57
  %59 = load ptr, ptr @accel_shared_globals, align 8, !tbaa !29
  %60 = getelementptr inbounds nuw %struct._zend_accel_shared_globals, ptr %59, i32 0, i32 22
  %61 = load i32, ptr %5, align 4, !tbaa !4
  %62 = zext i32 %61 to i64
  %63 = mul i64 %62, 8
  %64 = getelementptr inbounds nuw i8, ptr %60, i64 %63
  store ptr %64, ptr %6, align 8, !tbaa !52
  %65 = load ptr, ptr %6, align 8, !tbaa !52
  %66 = getelementptr inbounds nuw %struct._zend_string, ptr %65, i32 0, i32 1
  %67 = load i64, ptr %66, align 8, !tbaa !60
  %68 = load i64, ptr %4, align 8, !tbaa !56
  %69 = icmp eq i64 %67, %68
  %70 = xor i1 %69, true
  %71 = xor i1 %70, true
  %72 = zext i1 %71 to i32
  %73 = sext i32 %72 to i64
  %74 = call i64 @llvm.expect.i64(i64 %73, i64 1)
  %75 = icmp ne i64 %74, 0
  br i1 %75, label %76, label %82

76:                                               ; preds = %58
  %77 = load ptr, ptr %6, align 8, !tbaa !52
  %78 = load ptr, ptr %3, align 8, !tbaa !52
  %79 = call zeroext i1 @zend_string_equal_content(ptr noundef %77, ptr noundef %78)
  br i1 %79, label %80, label %82

80:                                               ; preds = %76
  %81 = load ptr, ptr %6, align 8, !tbaa !52
  store ptr %81, ptr %2, align 8
  store i32 1, ptr %7, align 4
  br label %91

82:                                               ; preds = %76, %58
  %83 = load ptr, ptr %6, align 8, !tbaa !52
  %84 = getelementptr inbounds i8, ptr %83, i64 -4
  %85 = load i32, ptr %84, align 4, !tbaa !4
  store i32 %85, ptr %5, align 4, !tbaa !4
  br label %86

86:                                               ; preds = %82
  %87 = load i32, ptr %5, align 4, !tbaa !4
  %88 = icmp ne i32 %87, 0
  br i1 %88, label %58, label %89

89:                                               ; preds = %86
  br label %90

90:                                               ; preds = %89, %34
  store ptr null, ptr %2, align 8
  store i32 1, ptr %7, align 4
  br label %91

91:                                               ; preds = %90, %80, %32, %21
  call void @llvm.lifetime.end.p0(i64 8, ptr %6) #19
  call void @llvm.lifetime.end.p0(i64 4, ptr %5) #19
  call void @llvm.lifetime.end.p0(i64 8, ptr %4) #19
  %92 = load ptr, ptr %2, align 8
  ret ptr %92
}

; Function Attrs: nounwind uwtable
define internal ptr @accel_replace_string_by_shm_permanent(ptr noundef %0) #0 {
  %2 = alloca ptr, align 8
  %3 = alloca ptr, align 8
  %4 = alloca ptr, align 8
  %5 = alloca i32, align 4
  store ptr %0, ptr %3, align 8, !tbaa !52
  call void @llvm.lifetime.start.p0(i64 8, ptr %4) #19
  %6 = load ptr, ptr %3, align 8, !tbaa !52
  %7 = call ptr @accel_find_interned_string(ptr noundef %6)
  store ptr %7, ptr %4, align 8, !tbaa !52
  %8 = load ptr, ptr %4, align 8, !tbaa !52
  %9 = icmp ne ptr %8, null
  br i1 %9, label %10, label %13

10:                                               ; preds = %1
  %11 = load ptr, ptr %3, align 8, !tbaa !52
  call void @zend_string_release(ptr noundef %11)
  %12 = load ptr, ptr %4, align 8, !tbaa !52
  store ptr %12, ptr %2, align 8
  store i32 1, ptr %5, align 4
  br label %15

13:                                               ; preds = %1
  %14 = load ptr, ptr %3, align 8, !tbaa !52
  store ptr %14, ptr %2, align 8
  store i32 1, ptr %5, align 4
  br label %15

15:                                               ; preds = %13, %10
  call void @llvm.lifetime.end.p0(i64 8, ptr %4) #19
  %16 = load ptr, ptr %2, align 8
  ret ptr %16
}