; Function Attrs: nounwind uwtable
define internal ptr @accel_replace_string_by_shm_permanent(ptr noundef %0) #0 {
  %2 = alloca %struct.flock, align 8
  %3 = load ptr, ptr @accel_shared_globals, align 8, !tbaa !28
  %4 = getelementptr inbounds nuw i8, ptr %3, i64 176
  %5 = load ptr, ptr %4, align 8, !tbaa !54
  %.not.i7 = icmp ult ptr %0, %5
  br i1 %.not.i7, label %10, label %6

6:                                                ; preds = %1
  %7 = getelementptr inbounds nuw i8, ptr %3, i64 184
  %8 = load ptr, ptr %7, align 8, !tbaa !55
  %9 = icmp ult ptr %0, %8
  br i1 %9, label %accel_find_interned_string.exit, label %10

10:                                               ; preds = %6, %1
  %11 = load i8, ptr @accel_globals, align 8, !tbaa !148, !range !37, !noundef !38
  %12 = trunc nuw i8 %11 to i1
  br i1 %12, label %28, label %13

13:                                               ; preds = %10
  %14 = load i8, ptr getelementptr inbounds nuw (i8, ptr @accel_globals, i64 3), align 1, !tbaa !147, !range !37, !noundef !38
  %15 = trunc nuw i8 %14 to i1
  br i1 %15, label %16, label %zend_string_release.exit

16:                                               ; preds = %13
  call void @llvm.lifetime.start.p0(i64 32, ptr nonnull %2) #26
  store i16 0, ptr %2, align 8, !tbaa !161
  %17 = getelementptr inbounds nuw i8, ptr %2, i64 2
  store i16 0, ptr %17, align 2, !tbaa !163
  %18 = getelementptr inbounds nuw i8, ptr %2, i64 8
  store i64 1, ptr %18, align 8, !tbaa !164
  %19 = getelementptr inbounds nuw i8, ptr %2, i64 16
  store i64 1, ptr %19, align 8, !tbaa !165
  %20 = load i32, ptr @lock_file, align 4, !tbaa !59
  %21 = call i32 (i32, i32, ...) @fcntl(i32 noundef %20, i32 noundef 6, ptr noundef nonnull %2) #26
  %22 = icmp eq i32 %21, -1
  br i1 %22, label %accel_activate_add.exit.thread, label %27

accel_activate_add.exit.thread:                   ; preds = %16
  %23 = tail call ptr @__errno_location() #28
  %24 = load i32, ptr %23, align 4, !tbaa !59
  %25 = call ptr @strerror(i32 noundef %24) #26
  %26 = load i32, ptr %23, align 4, !tbaa !59
  call void (i32, ptr, ...) @zend_accel_error(i32 noundef 4, ptr noundef nonnull @.str.25, ptr noundef %25, i32 noundef %26) #26
  call void @llvm.lifetime.end.p0(i64 32, ptr nonnull %2) #26
  br label %zend_string_release.exit

27:                                               ; preds = %16
  call void @llvm.lifetime.end.p0(i64 32, ptr nonnull %2) #26
  store i8 1, ptr @accel_globals, align 8, !tbaa !148
  br label %28

28:                                               ; preds = %27, %10
  %29 = getelementptr inbounds nuw i8, ptr %0, i64 8
  %30 = load i64, ptr %29, align 8, !tbaa !56
  %.not.i.i = icmp eq i64 %30, 0
  br i1 %.not.i.i, label %31, label %zend_string_hash_val.exit.i

31:                                               ; preds = %28
  %32 = call i64 @zend_string_hash_func(ptr noundef nonnull %0) #26
  br label %zend_string_hash_val.exit.i

zend_string_hash_val.exit.i:                      ; preds = %31, %28
  %33 = phi i64 [ %32, %31 ], [ %30, %28 ]
  %34 = load ptr, ptr @accel_shared_globals, align 8, !tbaa !28
  %35 = getelementptr inbounds nuw i8, ptr %34, i64 168
  %36 = getelementptr inbounds nuw i8, ptr %34, i64 208
  %37 = load i32, ptr %35, align 8, !tbaa !58
  %38 = zext i32 %37 to i64
  %39 = and i64 %33, %38
  %40 = getelementptr inbounds nuw i8, ptr %36, i64 %39
  %41 = load i32, ptr %40, align 4, !tbaa !59
  %.not18.i = icmp eq i32 %41, 0
  br i1 %.not18.i, label %zend_string_release.exit, label %.preheader, !prof !53

.preheader:                                       ; preds = %zend_string_hash_val.exit.i
  %42 = getelementptr inbounds nuw i8, ptr %0, i64 16
  br label %43

43:                                               ; preds = %.preheader, %zend_string_equal_content.exit.i.thread
  %44 = phi ptr [ %58, %zend_string_equal_content.exit.i.thread ], [ %34, %.preheader ]
  %.014.i = phi i32 [ %60, %zend_string_equal_content.exit.i.thread ], [ %41, %.preheader ]
  %45 = getelementptr inbounds nuw i8, ptr %44, i64 168
  %46 = zext i32 %.014.i to i64
  %47 = shl nuw nsw i64 %46, 3
  %48 = getelementptr inbounds nuw i8, ptr %45, i64 %47
  %49 = getelementptr inbounds nuw i8, ptr %48, i64 8
  %50 = load i64, ptr %49, align 8, !tbaa !56
  %51 = icmp eq i64 %50, %33
  br i1 %51, label %52, label %zend_string_equal_content.exit.i.thread, !prof !40

52:                                               ; preds = %43
  %53 = getelementptr inbounds nuw i8, ptr %48, i64 16
  %54 = load i64, ptr %53, align 8, !tbaa !60
  %55 = load i64, ptr %42, align 8, !tbaa !60
  %56 = icmp eq i64 %54, %55
  br i1 %56, label %zend_string_equal_content.exit.i, label %zend_string_equal_content.exit.i.thread

zend_string_equal_content.exit.i:                 ; preds = %52
  %57 = call zeroext i1 @zend_string_equal_val(ptr noundef nonnull %48, ptr noundef nonnull %0) #26
  %.pre = load ptr, ptr @accel_shared_globals, align 8, !tbaa !28
  br i1 %57, label %accel_find_interned_string.exit.thread12, label %zend_string_equal_content.exit.i.thread

zend_string_equal_content.exit.i.thread:          ; preds = %52, %zend_string_equal_content.exit.i, %43
  %58 = phi ptr [ %44, %52 ], [ %.pre, %zend_string_equal_content.exit.i ], [ %44, %43 ]
  %59 = getelementptr inbounds i8, ptr %48, i64 -4
  %60 = load i32, ptr %59, align 4, !tbaa !59
  %.not19.i = icmp eq i32 %60, 0
  br i1 %.not19.i, label %zend_string_release.exit, label %43

accel_find_interned_string.exit:                  ; preds = %6
  %.not = icmp eq ptr %0, null
  br i1 %.not, label %zend_string_release.exit, label %accel_find_interned_string.exit.thread12

accel_find_interned_string.exit.thread12:         ; preds = %zend_string_equal_content.exit.i, %accel_find_interned_string.exit
  %.0.i15 = phi ptr [ %0, %accel_find_interned_string.exit ], [ %48, %zend_string_equal_content.exit.i ]
  %61 = getelementptr inbounds nuw i8, ptr %0, i64 4
  %62 = load i32, ptr %61, align 4, !tbaa !64
  %63 = and i32 %62, 64
  %.not.i = icmp eq i32 %63, 0
  br i1 %.not.i, label %64, label %zend_string_release.exit

64:                                               ; preds = %accel_find_interned_string.exit.thread12
  %65 = load i32, ptr %0, align 4, !tbaa !63
  %66 = icmp ne i32 %65, 0
  call void @llvm.assume(i1 %66)
  %67 = add i32 %65, -1
  store i32 %67, ptr %0, align 4, !tbaa !63
  %68 = icmp eq i32 %67, 0
  br i1 %68, label %69, label %zend_string_release.exit

69:                                               ; preds = %64
  %70 = and i32 %62, 128
  %.not5.i = icmp eq i32 %70, 0
  br i1 %.not5.i, label %72, label %71

71:                                               ; preds = %69
  call void @free(ptr noundef nonnull %0) #26
  br label %zend_string_release.exit

72:                                               ; preds = %69
  call void @_efree(ptr noundef nonnull %0) #26
  br label %zend_string_release.exit

zend_string_release.exit:                         ; preds = %zend_string_equal_content.exit.i.thread, %accel_activate_add.exit.thread, %zend_string_hash_val.exit.i, %13, %72, %71, %64, %accel_find_interned_string.exit.thread12, %accel_find_interned_string.exit
  %.0 = phi ptr [ null, %accel_find_interned_string.exit ], [ %.0.i15, %accel_find_interned_string.exit.thread12 ], [ %.0.i15, %64 ], [ %.0.i15, %71 ], [ %.0.i15, %72 ], [ %0, %13 ], [ %0, %zend_string_hash_val.exit.i ], [ %0, %accel_activate_add.exit.thread ], [ %0, %zend_string_equal_content.exit.i.thread ]
  ret ptr %.0
}